; Function Attrs: nounwind uwtable
define void @HMAC_CTX_free(ptr noundef %0) local_unnamed_addr #0 {
  %.not = icmp eq ptr %0, null
  br i1 %.not, label %15, label %2

2:                                                ; preds = %1
  %3 = getelementptr inbounds nuw i8, ptr %0, i64 16
  %4 = load ptr, ptr %3, align 8, !tbaa !17
  %5 = tail call i32 @EVP_MD_CTX_reset(ptr noundef %4) #7
  %6 = getelementptr inbounds nuw i8, ptr %0, i64 24
  %7 = load ptr, ptr %6, align 8, !tbaa !19
  %8 = tail call i32 @EVP_MD_CTX_reset(ptr noundef %7) #7
  %9 = getelementptr inbounds nuw i8, ptr %0, i64 8
  %10 = load ptr, ptr %9, align 8, !tbaa !11
  %11 = tail call i32 @EVP_MD_CTX_reset(ptr noundef %10) #7
  store ptr null, ptr %0, align 8, !tbaa !3
  %12 = load ptr, ptr %3, align 8, !tbaa !17
  tail call void @EVP_MD_CTX_free(ptr noundef %12) #7
  %13 = load ptr, ptr %6, align 8, !tbaa !19
  tail call void @EVP_MD_CTX_free(ptr noundef %13) #7
  %14 = load ptr, ptr %9, align 8, !tbaa !11
  tail call void @EVP_MD_CTX_free(ptr noundef %14) #7
  tail call void @CRYPTO_free(ptr noundef nonnull %0, ptr noundef nonnull @.str, i32 noundef 194) #7
  br label %15

15:                                               ; preds = %2, %1
  ret void
}